	.text
	.file	"loop.c"
	.section	.rodata.cst8,"aM",@progbits,8
	.p2align	3               # -- Begin function main
.LCPI0_0:
	.quad	4472406533629990549     # double 1.0000000000000001E-9
	.text
	.globl	main
	.p2align	4, 0x90
	.type	main,@function
main:                                   # @main
.Lfunc_begin0:
	.file	1 "loop.c"
	.loc	1 49 0                  # loop.c:49:0
	.cfi_startproc
# BB#0:
	.loc	1 58 18 prologue_end    # loop.c:58:18
	pushq	%rbp
.Lcfi0:
	.cfi_def_cfa_offset 16
	pushq	%r15
.Lcfi1:
	.cfi_def_cfa_offset 24
	pushq	%r14
.Lcfi2:
	.cfi_def_cfa_offset 32
	pushq	%r12
.Lcfi3:
	.cfi_def_cfa_offset 40
	pushq	%rbx
.Lcfi4:
	.cfi_def_cfa_offset 48
	subq	$8224, %rsp             # imm = 0x2020
.Lcfi5:
	.cfi_def_cfa_offset 8272
.Lcfi6:
	.cfi_offset %rbx, -48
.Lcfi7:
	.cfi_offset %r12, -40
.Lcfi8:
	.cfi_offset %r14, -32
.Lcfi9:
	.cfi_offset %r15, -24
.Lcfi10:
	.cfi_offset %rbp, -16
	#DEBUG_VALUE: main:argc <- %EDI
	#DEBUG_VALUE: main:argv <- %RSI
.Ltmp0:
	#DEBUG_VALUE: main:total <- 0
	#DEBUG_VALUE: main:seed <- 0
	movl	$0, 12(%rsp)
.Ltmp1:
	#DEBUG_VALUE: main:j <- 0
	.loc	1 0 18 is_stmt 0        # loop.c:0:18
	leaq	4128(%rsp), %rdi
.Ltmp2:
	#DEBUG_VALUE: main:A <- [%RDI+0]
	xorl	%ebx, %ebx
.Ltmp3:
	.loc	1 64 14 is_stmt 1       # loop.c:64:14
	xorl	%esi, %esi
.Ltmp4:
	movl	$4096, %edx             # imm = 0x1000
	callq	memset
.Ltmp5:
	.loc	1 0 14 is_stmt 0        # loop.c:0:14
	leaq	32(%rsp), %rdi
.Ltmp6:
	#DEBUG_VALUE: main:C <- [%RDI+0]
	.loc	1 66 14 is_stmt 1       # loop.c:66:14
	xorl	%esi, %esi
	movl	$4096, %edx             # imm = 0x1000
	callq	memset
.Ltmp7:
	.loc	1 0 14 is_stmt 0        # loop.c:0:14
	leaq	16(%rsp), %rsi
.Ltmp8:
	#DEBUG_VALUE: gettime:s <- [%RSP+16]
	.file	2 "./." "fasttime.h"
	.loc	2 72 3 is_stmt 1        # ././fasttime.h:72:3
	movl	$1, %edi
	callq	clock_gettime
	.loc	2 77 10                 # ././fasttime.h:77:10
	movq	16(%rsp), %r15
.Ltmp9:
	#DEBUG_VALUE: main:time1 <- [DW_OP_LLVM_fragment 0 64] %R15
	#DEBUG_VALUE: tdiff:start <- [DW_OP_LLVM_fragment 0 64] %R15
	movq	24(%rsp), %r14
.Ltmp10:
	#DEBUG_VALUE: main:time1 <- [DW_OP_LLVM_fragment 64 64] %R14
	#DEBUG_VALUE: tdiff:start <- [DW_OP_LLVM_fragment 64 64] %R14
	.loc	2 0 10 is_stmt 0        # ././fasttime.h:0:10
	vpxor	%ymm0, %ymm0, %ymm0
.Ltmp11:
	.p2align	4, 0x90
.LBB0_1:                                # =>This Inner Loop Header: Depth=1
	#DEBUG_VALUE: main:time1 <- [DW_OP_LLVM_fragment 64 64] %R14
	.loc	1 75 19 is_stmt 1       # loop.c:75:19
	vpaddd	4128(%rsp,%rbx,4), %ymm0, %ymm0
.Ltmp12:
	.loc	1 73 29                 # loop.c:73:29
	addq	$8, %rbx
	cmpq	$1024, %rbx             # imm = 0x400
	jne	.LBB0_1
.Ltmp13:
# BB#2:
	#DEBUG_VALUE: main:time1 <- [DW_OP_LLVM_fragment 64 64] %R14
	.loc	1 75 19                 # loop.c:75:19
	vextracti128	$1, %ymm0, %xmm1
	vpaddd	%ymm1, %ymm0, %ymm0
	vpshufd	$78, %xmm0, %xmm1       # xmm1 = xmm0[2,3,0,1]
	vpaddd	%ymm1, %ymm0, %ymm0
	vphaddd	%ymm0, %ymm0, %ymm0
	vmovd	%xmm0, %r12d
	leaq	16(%rsp), %rsi
.Ltmp14:
	#DEBUG_VALUE: gettime:s <- [%RSP+16]
	.loc	2 72 3                  # ././fasttime.h:72:3
	movl	$1, %edi
	vzeroupper
	callq	clock_gettime
	.loc	2 77 10                 # ././fasttime.h:77:10
	movq	16(%rsp), %rbx
.Ltmp15:
	#DEBUG_VALUE: main:time2 <- [DW_OP_LLVM_fragment 0 64] %RBX
	#DEBUG_VALUE: tdiff:end <- [DW_OP_LLVM_fragment 0 64] %RBX
	.loc	2 83 21                 # ././fasttime.h:83:21
	subq	%r15, %rbx
.Ltmp16:
	.loc	2 77 10                 # ././fasttime.h:77:10
	movq	24(%rsp), %rbp
.Ltmp17:
	#DEBUG_VALUE: main:time2 <- [DW_OP_LLVM_fragment 64 64] %RBP
	#DEBUG_VALUE: tdiff:end <- [DW_OP_LLVM_fragment 64 64] %RBP
	.loc	2 83 56                 # ././fasttime.h:83:56
	subq	%r14, %rbp
.Ltmp18:
	.loc	2 0 56 is_stmt 0        # ././fasttime.h:0:56
	leaq	12(%rsp), %rdi
.Ltmp19:
	#DEBUG_VALUE: main:seed <- [%RSP+12]
	.loc	1 82 16 is_stmt 1       # loop.c:82:16
	callq	rand_r
	.loc	1 82 30 is_stmt 0       # loop.c:82:30
	movl	%eax, %ecx
	sarl	$31, %ecx
	shrl	$22, %ecx
	addl	%eax, %ecx
	andl	$-1024, %ecx            # imm = 0xFC00
	subl	%ecx, %eax
	.loc	1 82 14                 # loop.c:82:14
	cltq
	.loc	1 82 11                 # loop.c:82:11
	addl	32(%rsp,%rax,4), %r12d
.Ltmp20:
	#DEBUG_VALUE: main:total <- %R12D
	.loc	2 83 10 is_stmt 1       # ././fasttime.h:83:10
	vcvtsi2sdq	%rbx, %xmm2, %xmm0
	.loc	2 83 43 is_stmt 0       # ././fasttime.h:83:43
	vcvtsi2sdq	%rbp, %xmm2, %xmm1
	.loc	2 83 42                 # ././fasttime.h:83:42
	vmulsd	.LCPI0_0(%rip), %xmm1, %xmm1
	.loc	2 83 36                 # ././fasttime.h:83:36
	vaddsd	%xmm0, %xmm1, %xmm0
.Ltmp21:
	#DEBUG_VALUE: main:elapsedf <- %XMM0
	.loc	1 87 5 is_stmt 1        # loop.c:87:5
	movl	$.L.str, %edi
	movl	$1024, %esi             # imm = 0x400
	movl	$100000, %edx           # imm = 0x186A0
	movl	$.L.str.1, %ecx
	movl	$.L.str.2, %r8d
	movb	$1, %al
	callq	printf
.Ltmp22:
	.loc	1 91 5                  # loop.c:91:5
	movl	%r12d, %eax
	addq	$8224, %rsp             # imm = 0x2020
.Ltmp23:
	popq	%rbx
	popq	%r12
.Ltmp24:
	popq	%r14
.Ltmp25:
	popq	%r15
	popq	%rbp
	retq
.Ltmp26:
.Lfunc_end0:
	.size	main, .Lfunc_end0-main
	.cfi_endproc
	.file	3 "/usr/include/x86_64-linux-gnu/bits" "types.h"
	.file	4 "/usr/include" "time.h"
                                        # -- End function
	.type	.L.str,@object          # @.str
	.section	.rodata.str1.1,"aMS",@progbits,1
.L.str:
	.asciz	"Elapsed execution time: %f sec; N: %d, I: %d, __OP__: %s, __TYPE__: %s\n"
	.size	.L.str, 72

	.type	.L.str.1,@object        # @.str.1
.L.str.1:
	.asciz	"+"
	.size	.L.str.1, 2

	.type	.L.str.2,@object        # @.str.2
.L.str.2:
	.asciz	"uint32_t"
	.size	.L.str.2, 9

	.file	5 "/usr/include" "stdint.h"
	.section	".note.GNU-stack","",@progbits