.text
	.file	"loop.c"
	.section	.rodata.cst8,"aM",@progbits,8
	.p2align	3               # -- Begin function main
.LCPI0_0:
	.quad	4472406533629990549     # double 1.0000000000000001E-9
	.text
	.globl	main
	.p2align	4, 0x90
	.type	main,@function
main:                                   # @main
.Lfunc_begin0:
	.file	1 "loop.c"
	.loc	1 49 0                  # loop.c:49:0
	.cfi_startproc
# BB#0:
	.loc	1 56 18 prologue_end    # loop.c:56:18
	pushq	%rbp
.Lcfi0:
	.cfi_def_cfa_offset 16
	pushq	%r15
.Lcfi1:
	.cfi_def_cfa_offset 24
	pushq	%r14
.Lcfi2:
	.cfi_def_cfa_offset 32
	pushq	%rbx
.Lcfi3:
	.cfi_def_cfa_offset 40
	subq	$12328, %rsp            # imm = 0x3028
.Lcfi4:
	.cfi_def_cfa_offset 12368
.Lcfi5:
	.cfi_offset %rbx, -40
.Lcfi6:
	.cfi_offset %r14, -32
.Lcfi7:
	.cfi_offset %r15, -24
.Lcfi8:
	.cfi_offset %rbp, -16
	#DEBUG_VALUE: main:argc <- %EDI
	#DEBUG_VALUE: main:argv <- %RSI
.Ltmp0:
	#DEBUG_VALUE: main:total <- 0
	#DEBUG_VALUE: main:seed <- 0
	movl	$0, 12(%rsp)
.Ltmp1:
	#DEBUG_VALUE: main:j <- 0
	.loc	1 0 18 is_stmt 0        # loop.c:0:18
	leaq	8224(%rsp), %rdi
.Ltmp2:
	#DEBUG_VALUE: main:A <- [%RDI+0]
	xorl	%ebx, %ebx
.Ltmp3:
	.loc	1 62 14 is_stmt 1       # loop.c:62:14
	xorl	%esi, %esi
.Ltmp4:
	movl	$4096, %edx             # imm = 0x1000
	callq	memset
.Ltmp5:
	.loc	1 0 14 is_stmt 0        # loop.c:0:14
	leaq	4128(%rsp), %rdi
.Ltmp6:
	#DEBUG_VALUE: main:B <- [%RDI+0]
	.loc	1 63 14 is_stmt 1       # loop.c:63:14
	xorl	%esi, %esi
	movl	$4096, %edx             # imm = 0x1000
	callq	memset
.Ltmp7:
	.loc	1 0 14 is_stmt 0        # loop.c:0:14
	leaq	32(%rsp), %rdi
.Ltmp8:
	#DEBUG_VALUE: main:C <- [%RDI+0]
	.loc	1 64 14 is_stmt 1       # loop.c:64:14
	xorl	%esi, %esi
	movl	$4096, %edx             # imm = 0x1000
	callq	memset
.Ltmp9:
	.loc	1 0 14 is_stmt 0        # loop.c:0:14
	leaq	16(%rsp), %rsi
.Ltmp10:
	#DEBUG_VALUE: gettime:s <- [%RSP+16]
	.file	2 "./." "fasttime.h"
	.loc	2 72 3 is_stmt 1        # ././fasttime.h:72:3
	movl	$1, %edi
	callq	clock_gettime
	.loc	2 77 10                 # ././fasttime.h:77:10
	movq	16(%rsp), %r15
.Ltmp11:
	#DEBUG_VALUE: main:time1 <- [DW_OP_LLVM_fragment 0 64] %R15
	#DEBUG_VALUE: tdiff:start <- [DW_OP_LLVM_fragment 0 64] %R15
	movq	24(%rsp), %r14
.Ltmp12:
	#DEBUG_VALUE: main:i <- 0
	#DEBUG_VALUE: main:time1 <- [DW_OP_LLVM_fragment 64 64] %R14
	#DEBUG_VALUE: tdiff:start <- [DW_OP_LLVM_fragment 64 64] %R14
	.p2align	4, 0x90
.LBB0_1:                                # =>This Loop Header: Depth=1
                                        #     Child Loop BB0_2 Depth 2
	#DEBUG_VALUE: main:time1 <- [DW_OP_LLVM_fragment 64 64] %R14
	#DEBUG_VALUE: main:j <- 0
	.loc	1 70 29                 # loop.c:70:29
	xorl	%eax, %eax
.Ltmp13:
	.p2align	4, 0x90
.LBB0_2:                                #   Parent Loop BB0_1 Depth=1
                                        # =>  This Inner Loop Header: Depth=2
	#DEBUG_VALUE: main:time1 <- [DW_OP_LLVM_fragment 64 64] %R14
	.loc	1 71 32                 # loop.c:71:32
	movdqa	4128(%rsp,%rax,4), %xmm0
	movdqa	4144(%rsp,%rax,4), %xmm1
	movdqa	4160(%rsp,%rax,4), %xmm2
	movdqa	4176(%rsp,%rax,4), %xmm3
	.loc	1 71 25 is_stmt 0       # loop.c:71:25
	paddd	8224(%rsp,%rax,4), %xmm0
	paddd	8240(%rsp,%rax,4), %xmm1
	.loc	1 71 18                 # loop.c:71:18
	movdqa	%xmm0, 32(%rsp,%rax,4)
	movdqa	%xmm1, 48(%rsp,%rax,4)
	.loc	1 71 25                 # loop.c:71:25
	paddd	8256(%rsp,%rax,4), %xmm2
	paddd	8272(%rsp,%rax,4), %xmm3
	.loc	1 71 18                 # loop.c:71:18
	movdqa	%xmm2, 64(%rsp,%rax,4)
	movdqa	%xmm3, 80(%rsp,%rax,4)
.Ltmp14:
	.loc	1 70 29 is_stmt 1       # loop.c:70:29
	addq	$16, %rax
	cmpq	$1024, %rax             # imm = 0x400
	jne	.LBB0_2
.Ltmp15:
# BB#3:                                 #   in Loop: Header=BB0_1 Depth=1
	#DEBUG_VALUE: main:time1 <- [DW_OP_LLVM_fragment 64 64] %R14
	#DEBUG_VALUE: main:i <- %EBX
	.loc	1 69 25                 # loop.c:69:25
	incl	%ebx
.Ltmp16:
	.loc	1 69 19 is_stmt 0       # loop.c:69:19
	cmpl	$100000, %ebx           # imm = 0x186A0
.Ltmp17:
	.loc	1 69 5                  # loop.c:69:5
	jne	.LBB0_1
.Ltmp18:
# BB#4:
	#DEBUG_VALUE: main:time1 <- [DW_OP_LLVM_fragment 64 64] %R14
	.loc	1 0 5                   # loop.c:0:5
	leaq	16(%rsp), %rsi
.Ltmp19:
	#DEBUG_VALUE: gettime:s <- [%RSP+16]
	.loc	2 72 3 is_stmt 1        # ././fasttime.h:72:3
	movl	$1, %edi
	callq	clock_gettime
	.loc	2 77 10                 # ././fasttime.h:77:10
	movq	16(%rsp), %rbx
.Ltmp20:
	#DEBUG_VALUE: main:time2 <- [DW_OP_LLVM_fragment 0 64] %RBX
	#DEBUG_VALUE: tdiff:end <- [DW_OP_LLVM_fragment 0 64] %RBX
	.loc	2 83 21                 # ././fasttime.h:83:21
	subq	%r15, %rbx
.Ltmp21:
	.loc	2 77 10                 # ././fasttime.h:77:10
	movq	24(%rsp), %rbp
.Ltmp22:
	#DEBUG_VALUE: main:time2 <- [DW_OP_LLVM_fragment 64 64] %RBP
	#DEBUG_VALUE: tdiff:end <- [DW_OP_LLVM_fragment 64 64] %RBP
	.loc	2 83 56                 # ././fasttime.h:83:56
	subq	%r14, %rbp
.Ltmp23:
	.loc	2 0 56 is_stmt 0        # ././fasttime.h:0:56
	leaq	12(%rsp), %rdi
.Ltmp24:
	#DEBUG_VALUE: main:seed <- [%RSP+12]
	.loc	1 78 16 is_stmt 1       # loop.c:78:16
	callq	rand_r
	.loc	1 78 30 is_stmt 0       # loop.c:78:30
	movl	%eax, %ecx
	sarl	$31, %ecx
	shrl	$22, %ecx
	addl	%eax, %ecx
	andl	$-1024, %ecx            # imm = 0xFC00
	subl	%ecx, %eax
	.loc	1 78 14                 # loop.c:78:14
	cltq
	movl	32(%rsp,%rax,4), %r14d
.Ltmp25:
	#DEBUG_VALUE: main:total <- %R14D
	.loc	2 83 10 is_stmt 1       # ././fasttime.h:83:10
	xorps	%xmm1, %xmm1
	cvtsi2sdq	%rbx, %xmm1
	.loc	2 83 43 is_stmt 0       # ././fasttime.h:83:43
	xorps	%xmm0, %xmm0
	cvtsi2sdq	%rbp, %xmm0
	.loc	2 83 42                 # ././fasttime.h:83:42
	mulsd	.LCPI0_0(%rip), %xmm0
	.loc	2 83 36                 # ././fasttime.h:83:36
	addsd	%xmm1, %xmm0
.Ltmp26:
	#DEBUG_VALUE: main:elapsedf <- %XMM0
	.loc	1 83 5                  # loop.c:83:5
	movl	$.L.str, %edi
	movl	$1024, %esi             # imm = 0x400
	movl	$100000, %edx           # imm = 0x186A0
	movl	$.L.str.1, %ecx
	movl	$.L.str.2, %r8d
	movb	$1, %al
	callq	printf
.Ltmp27:
	.loc	1 87 5 is_stmt 1        # loop.c:87:5
	movl	%r14d, %eax
	addq	$12328, %rsp            # imm = 0x3028
.Ltmp28:
	popq	%rbx
	popq	%r14
.Ltmp29:
	popq	%r15
	popq	%rbp
	retq
.Ltmp30:
.Lfunc_end0:
	.size	main, .Lfunc_end0-main
	.cfi_endproc
	.file	3 "/usr/include/x86_64-linux-gnu/bits" "types.h"
	.file	4 "/usr/include" "time.h"
                                        # -- End function
	.type	.L.str,@object          # @.str
	.section	.rodata.str1.1,"aMS",@progbits,1
.L.str:
	.asciz	"Elapsed execution time: %f sec; N: %d, I: %d, __OP__: %s, __TYPE__: %s\n"
	.size	.L.str, 72

	.type	.L.str.1,@object        # @.str.1
.L.str.1:
	.asciz	"+"
	.size	.L.str.1, 2

	.type	.L.str.2,@object        # @.str.2
.L.str.2:
	.asciz	"uint32_t"
	.size	.L.str.2, 9

	.file	5 "/usr/include" "stdint.h"
	.section	".note.GNU-stack","",@progbits